target datalayout = "e-m:e-p270:32:32-p271:32:32-p272:64:64-i64:64-i128:128-f80:128-n8:16:32:64-S128"
target triple = "x86_64-pc-linux-gnu"

%struct.CRYPTO_REF_COUNT = type { i32 }
%struct.crypto_ex_data_st = type { ptr, ptr }
%struct.OSSL_TIME = type { i64 }
%struct.srp_ctx_st = type { ptr, ptr, ptr, ptr, ptr, ptr, ptr, ptr, ptr, ptr, ptr, ptr, ptr, ptr, i32, i64 }
%struct.ssl_ctx_st = type { ptr, ptr, ptr, ptr, ptr, ptr, ptr, i64, ptr, ptr, i32, %struct.OSSL_TIME, ptr, ptr, ptr, %struct.anon.3, %struct.CRYPTO_REF_COUNT, ptr, ptr, ptr, ptr, ptr, ptr, ptr, ptr, ptr, %struct.crypto_ex_data_st, ptr, ptr, ptr, ptr, ptr, ptr, ptr, i64, i32, i32, i32, i64, ptr, ptr, i32, ptr, ptr, i32, i64, [32 x i8], ptr, ptr, ptr, i32, ptr, ptr, ptr, i64, i64, i64, i64, ptr, ptr, ptr, ptr, ptr, %struct.anon.4, ptr, ptr, ptr, ptr, %struct.srp_ctx_st, %struct.dane_ctx_st, ptr, ptr, ptr, ptr, i32, i32, ptr, ptr, i64, i64, ptr, ptr, ptr, i64, ptr, ptr, i32, ptr, ptr, ptr, [14 x i32], [24 x ptr], [14 x ptr], [14 x i64], i64, ptr, ptr, ptr, i64, i64, ptr, i64, i64, i32, i32, i32, i32, ptr, i64, ptr, i64, i64, ptr, ptr }
%struct.anon.3 = type { i32, i32, i32, i32, i32, i32, i32, i32, i32, i32, i32 }
%struct.anon.4 = type { ptr, ptr, [16 x i8], ptr, ptr, ptr, ptr, ptr, i32, i8, i64, ptr, i64, ptr, i64, ptr, i64, ptr, ptr, i64, ptr, ptr, ptr, i64, ptr, ptr, ptr, ptr, [32 x i8] }
%struct.dane_ctx_st = type { ptr, ptr, i8, i64 }
%struct.cert_st = type { ptr, ptr, ptr, i32, i32, ptr, i64, ptr, i64, ptr, i64, ptr, i64, ptr, ptr, ptr, ptr, %struct.custom_ext_methods, ptr, i32, ptr, ptr, %struct.CRYPTO_REF_COUNT }
%struct.custom_ext_methods = type { ptr, i64 }

@.str = private unnamed_addr constant [25 x i8] c"../openssl/ssl/ssl_lib.c\00", align 1
@__func__.SSL_CTX_use_psk_identity_hint = private unnamed_addr constant [30 x i8] c"SSL_CTX_use_psk_identity_hint\00", align 1

; Function Attrs: nounwind uwtable
define i32 @SSL_CTX_use_psk_identity_hint(ptr noundef %0, ptr noundef %1) #0 {
  %3 = alloca i32, align 4
  %4 = alloca ptr, align 8
  %5 = alloca ptr, align 8
  store ptr %0, ptr %4, align 8, !tbaa !109
  store ptr %1, ptr %5, align 8, !tbaa !8
  %6 = load ptr, ptr %5, align 8, !tbaa !8
  %7 = icmp ne ptr %6, null
  br i1 %7, label %8, label %13

8:                                                ; preds = %2
  %9 = load ptr, ptr %5, align 8, !tbaa !8
  %10 = call i64 @strlen(ptr noundef %9) #10
  %11 = icmp ugt i64 %10, 256
  br i1 %11, label %12, label %13

12:                                               ; preds = %8
  call void @ERR_new()
  call void @ERR_set_debug(ptr noundef @.str, i32 noundef 5725, ptr noundef @__func__.SSL_CTX_use_psk_identity_hint)
  call void (i32, i32, ptr, ...) @ERR_set_error(i32 noundef 20, i32 noundef 146, ptr noundef null)
  store i32 0, ptr %3, align 4
  br label %42

13:                                               ; preds = %8, %2
  %14 = load ptr, ptr %4, align 8, !tbaa !109
  %15 = getelementptr inbounds nuw %struct.ssl_ctx_st, ptr %14, i32 0, i32 39
  %16 = load ptr, ptr %15, align 8, !tbaa !127
  %17 = getelementptr inbounds nuw %struct.cert_st, ptr %16, i32 0, i32 21
  %18 = load ptr, ptr %17, align 8, !tbaa !537
  call void @CRYPTO_free(ptr noundef %18, ptr noundef @.str, i32 noundef 5728)
  %19 = load ptr, ptr %5, align 8, !tbaa !8
  %20 = icmp ne ptr %19, null
  br i1 %20, label %21, label %36

21:                                               ; preds = %13
  %22 = load ptr, ptr %5, align 8, !tbaa !8
  %23 = call noalias ptr @CRYPTO_strdup(ptr noundef %22, ptr noundef @.str, i32 noundef 5730)
  %24 = load ptr, ptr %4, align 8, !tbaa !109
  %25 = getelementptr inbounds nuw %struct.ssl_ctx_st, ptr %24, i32 0, i32 39
  %26 = load ptr, ptr %25, align 8, !tbaa !127
  %27 = getelementptr inbounds nuw %struct.cert_st, ptr %26, i32 0, i32 21
  store ptr %23, ptr %27, align 8, !tbaa !537
  %28 = load ptr, ptr %4, align 8, !tbaa !109
  %29 = getelementptr inbounds nuw %struct.ssl_ctx_st, ptr %28, i32 0, i32 39
  %30 = load ptr, ptr %29, align 8, !tbaa !127
  %31 = getelementptr inbounds nuw %struct.cert_st, ptr %30, i32 0, i32 21
  %32 = load ptr, ptr %31, align 8, !tbaa !537
  %33 = icmp eq ptr %32, null
  br i1 %33, label %34, label %35

34:                                               ; preds = %21
  store i32 0, ptr %3, align 4
  br label %42

35:                                               ; preds = %21
  br label %41

36:                                               ; preds = %13
  %37 = load ptr, ptr %4, align 8, !tbaa !109
  %38 = getelementptr inbounds nuw %struct.ssl_ctx_st, ptr %37, i32 0, i32 39
  %39 = load ptr, ptr %38, align 8, !tbaa !127
  %40 = getelementptr inbounds nuw %struct.cert_st, ptr %39, i32 0, i32 21
  store ptr null, ptr %40, align 8, !tbaa !537
  br label %41

41:                                               ; preds = %36, %35
  store i32 1, ptr %3, align 4
  br label %42

42:                                               ; preds = %41, %34, %12
  %43 = load i32, ptr %3, align 4
  ret i32 %43
}