; Function Attrs: nounwind uwtable
define range(i32 0, 2) i32 @SSL_CTX_use_psk_identity_hint(ptr noundef readonly captures(none) %0, ptr noundef %1) local_unnamed_addr #0 {
  %.not = icmp eq ptr %1, null
  br i1 %.not, label %16, label %3

3:                                                ; preds = %2
  %4 = tail call i64 @strlen(ptr noundef nonnull dereferenceable(1) %1) #21
  %5 = icmp ugt i64 %4, 256
  br i1 %5, label %6, label %7

6:                                                ; preds = %3
  tail call void @ERR_new() #20
  tail call void @ERR_set_debug(ptr noundef nonnull @.str, i32 noundef 5725, ptr noundef nonnull @__func__.SSL_CTX_use_psk_identity_hint) #20
  tail call void (i32, i32, ptr, ...) @ERR_set_error(i32 noundef 20, i32 noundef 146, ptr noundef null) #20
  br label %24

7:                                                ; preds = %3
  %8 = getelementptr inbounds nuw i8, ptr %0, i64 344
  %9 = load ptr, ptr %8, align 8, !tbaa !115
  %10 = getelementptr inbounds nuw i8, ptr %9, i64 168
  %11 = load ptr, ptr %10, align 8, !tbaa !477
  tail call void @CRYPTO_free(ptr noundef %11, ptr noundef nonnull @.str, i32 noundef 5728) #20
  %12 = tail call noalias ptr @CRYPTO_strdup(ptr noundef nonnull %1, ptr noundef nonnull @.str, i32 noundef 5730) #20
  %13 = load ptr, ptr %8, align 8, !tbaa !115
  %14 = getelementptr inbounds nuw i8, ptr %13, i64 168
  store ptr %12, ptr %14, align 8, !tbaa !477
  %15 = icmp eq ptr %12, null
  br i1 %15, label %24, label %23

16:                                               ; preds = %2
  %17 = getelementptr inbounds nuw i8, ptr %0, i64 344
  %18 = load ptr, ptr %17, align 8, !tbaa !115
  %19 = getelementptr inbounds nuw i8, ptr %18, i64 168
  %20 = load ptr, ptr %19, align 8, !tbaa !477
  tail call void @CRYPTO_free(ptr noundef %20, ptr noundef nonnull @.str, i32 noundef 5728) #20
  %21 = load ptr, ptr %17, align 8, !tbaa !115
  %22 = getelementptr inbounds nuw i8, ptr %21, i64 168
  store ptr null, ptr %22, align 8, !tbaa !477
  br label %23

23:                                               ; preds = %7, %16
  br label %24

24:                                               ; preds = %7, %23, %6
  %.0 = phi i32 [ 0, %6 ], [ 1, %23 ], [ 0, %7 ]
  ret i32 %.0
}